(dp0
ccopy_reg
_reconstructor
p1
(cuuid
UUID
p2
c__builtin__
object
p3
Ntp4
Rp5
(dp6
Vint
p7
L333553603012699583016609499152454049493L
sbg1
(cmodels.department
Department
p8
g3
Ntp9
Rp10
(dp11
Vid
p12
g5
sVname
p13
Vramp
p14
sbs.